target datalayout = "e-m:e-p270:32:32-p271:32:32-p272:64:64-i64:64-i128:128-f80:128-n8:16:32:64-S128"
target triple = "x86_64-unknown-linux-gnu"

%"class.net::SourceAddressToken" = type { %"class.google::protobuf::MessageLite", %"struct.google::protobuf::internal::ArenaStringPtr", ptr, [1 x i32], i32, %"struct.google::protobuf::internal::ArenaStringPtr", i64, ptr }
%"class.google::protobuf::MessageLite" = type { ptr }
%"struct.google::protobuf::internal::ArenaStringPtr" = type { ptr }

@_ZN3net18SourceAddressToken17default_instance_E = dso_local global ptr null, align 8
@_ZN3net19SourceAddressTokens17default_instance_E = dso_local global ptr null, align 8
@_ZZN3net49protobuf_AddDesc_source_5faddress_5ftoken_2eprotoEvE12already_here = internal global i8 0, align 1
@.str = private unnamed_addr constant [144 x i8] c"generated/home/dtcxzyw/WorkSpace/Projects/compilers/llvm-opt-benchmark/bench/libquic/libquic/src/net/quic/core/proto/source_address_token.pb.cc\00", align 1
@_ZN3net18SourceAddressTokenC1Ev = dso_local unnamed_addr alias void (ptr), ptr @_ZN3net18SourceAddressTokenC2Ev
@_ZN3net19SourceAddressTokensC1Ev = dso_local unnamed_addr alias void (ptr), ptr @_ZN3net19SourceAddressTokensC2Ev

; Function Attrs: mustprogress nounwind uwtable
define dso_local void @_ZN3net19SourceAddressTokens21InitAsDefaultInstanceEv(ptr noundef nonnull align 8 dereferenceable(56) %this) #0 align 2 {
entry:
  %this.addr = alloca ptr, align 8
  store ptr %this, ptr %this.addr, align 8
  ret void
}

; Function Attrs: mustprogress uwtable
define dso_local void @_ZN3net18SourceAddressToken21InitAsDefaultInstanceEv(ptr noundef nonnull align 8 dereferenceable(56) %this) #1 align 2 {
entry:
  %this.addr = alloca ptr, align 8
  store ptr %this, ptr %this.addr, align 8
  %this1 = load ptr, ptr %this.addr, align 8
  %call = call noundef nonnull align 8 dereferenceable(72) ptr @_ZN3net23CachedNetworkParameters16default_instanceEv()
  %cached_network_parameters_ = getelementptr inbounds %"class.net::SourceAddressToken", ptr %this1, i32 0, i32 7
  store ptr %call, ptr %cached_network_parameters_, align 8
  ret void
}

; Function Attrs: mustprogress uwtable
define dso_local void @_ZN3net49protobuf_AddDesc_source_5faddress_5ftoken_2eprotoEv() #1 personality ptr @__gxx_personality_v0 {
entry:
  %exn.slot = alloca ptr, align 8
  %ehselector.slot = alloca i32, align 4
  %0 = load i8, ptr @_ZZN3net49protobuf_AddDesc_source_5faddress_5ftoken_2eprotoEvE12already_here, align 1
  %tobool = trunc i8 %0 to i1
  br i1 %tobool, label %if.then, label %if.end

if.then:                                          ; preds = %entry
  br label %return

if.end:                                           ; preds = %entry
  store i8 1, ptr @_ZZN3net49protobuf_AddDesc_source_5faddress_5ftoken_2eprotoEvE12already_here, align 1
  call void @_ZN6google8protobuf8internal13VerifyVersionEiiPKc(i32 noundef 3000000, i32 noundef 3000000, ptr noundef @.str)
  call void @_ZN3net54protobuf_AddDesc_cached_5fnetwork_5fparameters_2eprotoEv()
  %call = call noalias noundef nonnull ptr @_Znwm(i64 noundef 56) #13
  invoke void @_ZN3net18SourceAddressTokenC1Ev(ptr noundef nonnull align 8 dereferenceable(56) %call)
          to label %invoke.cont unwind label %lpad

invoke.cont:                                      ; preds = %if.end
  store ptr %call, ptr @_ZN3net18SourceAddressToken17default_instance_E, align 8
  %call1 = call noalias noundef nonnull ptr @_Znwm(i64 noundef 56) #13
  invoke void @_ZN3net19SourceAddressTokensC1Ev(ptr noundef nonnull align 8 dereferenceable(56) %call1)
          to label %invoke.cont3 unwind label %lpad2

invoke.cont3:                                     ; preds = %invoke.cont
  store ptr %call1, ptr @_ZN3net19SourceAddressTokens17default_instance_E, align 8
  %1 = load ptr, ptr @_ZN3net18SourceAddressToken17default_instance_E, align 8
  call void @_ZN3net18SourceAddressToken21InitAsDefaultInstanceEv(ptr noundef nonnull align 8 dereferenceable(56) %1)
  %2 = load ptr, ptr @_ZN3net19SourceAddressTokens17default_instance_E, align 8
  call void @_ZN3net19SourceAddressTokens21InitAsDefaultInstanceEv(ptr noundef nonnull align 8 dereferenceable(56) %2)
  call void @_ZN6google8protobuf8internal10OnShutdownEPFvvE(ptr noundef @_ZN3net54protobuf_ShutdownFile_source_5faddress_5ftoken_2eprotoEv)
  br label %return

return:                                           ; preds = %invoke.cont3, %if.then
  ret void

lpad:                                             ; preds = %if.end
  %3 = landingpad { ptr, i32 }
          cleanup
  %4 = extractvalue { ptr, i32 } %3, 0
  store ptr %4, ptr %exn.slot, align 8
  %5 = extractvalue { ptr, i32 } %3, 1
  store i32 %5, ptr %ehselector.slot, align 4
  call void @_ZdlPv(ptr noundef %call) #14
  br label %eh.resume

lpad2:                                            ; preds = %invoke.cont
  %6 = landingpad { ptr, i32 }
          cleanup
  %7 = extractvalue { ptr, i32 } %6, 0
  store ptr %7, ptr %exn.slot, align 8
  %8 = extractvalue { ptr, i32 } %6, 1
  store i32 %8, ptr %ehselector.slot, align 4
  call void @_ZdlPv(ptr noundef %call1) #14
  br label %eh.resume

eh.resume:                                        ; preds = %lpad2, %lpad
  %exn = load ptr, ptr %exn.slot, align 8
  %sel = load i32, ptr %ehselector.slot, align 4
  %lpad.val = insertvalue { ptr, i32 } poison, ptr %exn, 0
  %lpad.val4 = insertvalue { ptr, i32 } %lpad.val, i32 %sel, 1
  resume { ptr, i32 } %lpad.val4
}