; Function Attrs: mustprogress uwtable
define dso_local void @_ZN3net49protobuf_AddDesc_source_5faddress_5ftoken_2eprotoEv() local_unnamed_addr #1 personality ptr @__gxx_personality_v0 {
entry:
  %.b1 = load i1, ptr @_ZZN3net49protobuf_AddDesc_source_5faddress_5ftoken_2eprotoEvE12already_here, align 1
  br i1 %.b1, label %return, label %if.end

if.end:                                           ; preds = %entry
  store i1 true, ptr @_ZZN3net49protobuf_AddDesc_source_5faddress_5ftoken_2eprotoEvE12already_here, align 1
  tail call void @_ZN6google8protobuf8internal13VerifyVersionEiiPKc(i32 noundef 3000000, i32 noundef 3000000, ptr noundef nonnull @.str)
  tail call void @_ZN3net54protobuf_AddDesc_cached_5fnetwork_5fparameters_2eprotoEv()
  %call = tail call noalias noundef nonnull dereferenceable(56) ptr @_Znwm(i64 noundef 56) #15
  store ptr getelementptr inbounds ({ [18 x ptr] }, ptr @_ZTVN3net18SourceAddressTokenE, i64 0, i32 0, i64 2), ptr %call, align 8
  %_arena_ptr_.i = getelementptr inbounds i8, ptr %call, i64 16
  store ptr null, ptr %_arena_ptr_.i, align 8
  %call.i1.i = invoke noundef nonnull align 8 dereferenceable(32) ptr @_ZN6google8protobuf8internal14GetEmptyStringB5cxx11Ev()
          to label %invoke.cont unwind label %lpad.i

lpad.i:                                           ; preds = %if.end
  %0 = landingpad { ptr, i32 }
          cleanup
  br label %eh.resume

invoke.cont:                                      ; preds = %if.end
  %_cached_size_.i.i = getelementptr inbounds i8, ptr %call, i64 28
  store i32 0, ptr %_cached_size_.i.i, align 4
  %_unknown_fields_.i.i = getelementptr inbounds i8, ptr %call, i64 8
  %1 = load ptr, ptr @_ZN6google8protobuf8internal13empty_string_B5cxx11E, align 8
  store ptr %1, ptr %_unknown_fields_.i.i, align 8
  %ip_.i.i = getelementptr inbounds i8, ptr %call, i64 32
  store ptr %1, ptr %ip_.i.i, align 8
  %timestamp_.i.i = getelementptr inbounds i8, ptr %call, i64 40
  %_has_bits_.i.i = getelementptr inbounds i8, ptr %call, i64 24
  store i32 0, ptr %_has_bits_.i.i, align 8
  tail call void @llvm.memset.p0.i64(ptr noundef nonnull align 8 dereferenceable(16) %timestamp_.i.i, i8 0, i64 16, i1 false)
  store ptr %call, ptr @_ZN3net18SourceAddressToken17default_instance_E, align 8
  %call1 = tail call noalias noundef nonnull dereferenceable(56) ptr @_Znwm(i64 noundef 56) #15
  store ptr getelementptr inbounds ({ [18 x ptr] }, ptr @_ZTVN3net19SourceAddressTokensE, i64 0, i32 0, i64 2), ptr %call1, align 8
  %_arena_ptr_.i3 = getelementptr inbounds i8, ptr %call1, i64 16
  store ptr null, ptr %_arena_ptr_.i3, align 8
  %tokens_.i = getelementptr inbounds i8, ptr %call1, i64 32
  tail call void @llvm.memset.p0.i64(ptr noundef nonnull align 8 dereferenceable(24) %tokens_.i, i8 0, i64 24, i1 false)
  %call.i2.i = invoke noundef nonnull align 8 dereferenceable(32) ptr @_ZN6google8protobuf8internal14GetEmptyStringB5cxx11Ev()
          to label %invoke.cont3 unwind label %lpad2.i

lpad2.i:                                          ; preds = %invoke.cont
  %2 = landingpad { ptr, i32 }
          cleanup
  tail call void @_ZN6google8protobuf16RepeatedPtrFieldIN3net18SourceAddressTokenEED2Ev(ptr noundef nonnull align 8 dereferenceable(24) %tokens_.i) #14
  br label %eh.resume

invoke.cont3:                                     ; preds = %invoke.cont
  %_cached_size_.i.i4 = getelementptr inbounds i8, ptr %call1, i64 28
  store i32 0, ptr %_cached_size_.i.i4, align 4
  %_unknown_fields_.i.i5 = getelementptr inbounds i8, ptr %call1, i64 8
  %3 = load ptr, ptr @_ZN6google8protobuf8internal13empty_string_B5cxx11E, align 8
  store ptr %3, ptr %_unknown_fields_.i.i5, align 8
  %_has_bits_.i.i6 = getelementptr inbounds i8, ptr %call1, i64 24
  store i32 0, ptr %_has_bits_.i.i6, align 8
  store ptr %call1, ptr @_ZN3net19SourceAddressTokens17default_instance_E, align 8
  %4 = load ptr, ptr @_ZN3net18SourceAddressToken17default_instance_E, align 8
  %call.i = tail call noundef nonnull align 8 dereferenceable(72) ptr @_ZN3net23CachedNetworkParameters16default_instanceEv()
  %cached_network_parameters_.i = getelementptr inbounds i8, ptr %4, i64 48
  store ptr %call.i, ptr %cached_network_parameters_.i, align 8
  tail call void @_ZN6google8protobuf8internal10OnShutdownEPFvvE(ptr noundef nonnull @_ZN3net54protobuf_ShutdownFile_source_5faddress_5ftoken_2eprotoEv)
  br label %return

return:                                           ; preds = %entry, %invoke.cont3
  ret void

eh.resume:                                        ; preds = %lpad2.i, %lpad.i
  %call1.sink8 = phi ptr [ %call1, %lpad2.i ], [ %call, %lpad.i ]
  %.pn = phi { ptr, i32 } [ %2, %lpad2.i ], [ %0, %lpad.i ]
  tail call void @_ZN6google8protobuf11MessageLiteD2Ev(ptr noundef nonnull align 8 dereferenceable(8) %call1.sink8) #14
  tail call void @_ZdlPv(ptr noundef nonnull %call1.sink8) #16
  resume { ptr, i32 } %.pn
}